target datalayout = "e-m:e-p270:32:32-p271:32:32-p272:64:64-i64:64-i128:128-f80:128-n8:16:32:64-S128"
target triple = "x86_64-pc-linux-gnu"

%"struct.dmlc::LogMessageFatal::Entry" = type { %"class.std::__cxx11::basic_ostringstream" }
%"class.std::__cxx11::basic_ostringstream" = type { %"class.std::basic_ostream.base", %"class.std::__cxx11::basic_stringbuf", %"class.std::basic_ios" }
%"class.std::basic_ostream.base" = type { ptr }
%"class.std::__cxx11::basic_stringbuf" = type { %"class.std::basic_streambuf", i32, %"class.std::__cxx11::basic_string" }
%"class.std::basic_streambuf" = type { ptr, ptr, ptr, ptr, ptr, ptr, ptr, %"class.std::locale" }
%"class.std::locale" = type { ptr }
%"class.std::__cxx11::basic_string" = type { %"struct.std::__cxx11::basic_string<char>::_Alloc_hider", i64, %union.anon }
%"struct.std::__cxx11::basic_string<char>::_Alloc_hider" = type { ptr }
%union.anon = type { i64, [8 x i8] }
%"class.std::basic_ios" = type { %"class.std::ios_base", ptr, i8, i8, ptr, ptr, ptr, ptr }
%"class.std::ios_base" = type { ptr, i64, i64, i32, i32, i32, ptr, %"struct.std::ios_base::_Words", [8 x %"struct.std::ios_base::_Words"], i32, ptr, %"class.std::locale" }
%"struct.std::ios_base::_Words" = type { ptr, i64 }
%"class.dmlc::LogMessageFatal" = type { i8 }
%"class.std::__shared_count" = type { ptr }
%"class.xgboost::BatchSet.142" = type { %"class.xgboost::BatchIterator.143" }
%"class.xgboost::BatchIterator.143" = type { %"class.std::shared_ptr.144" }
%"class.std::shared_ptr.144" = type { %"class.std::__shared_ptr.145" }
%"class.std::__shared_ptr.145" = type { ptr, %"class.std::__shared_count" }

@.str.15 = private unnamed_addr constant [121 x i8] c"generated/home/dtcxzyw/WorkSpace/Projects/compilers/llvm-opt-benchmark/bench/xgboost/xgboost/src/data/../common/common.h\00", align 1
@.str.16 = private unnamed_addr constant [47 x i8] c"XGBoost version not compiled with GPU support.\00", align 1

; Function Attrs: mustprogress nounwind uwtable
define linkonce_odr void @_ZNSt14__shared_countILN9__gnu_cxx12_Lock_policyE2EE7_M_swapERS2_(ptr noundef nonnull align 8 dereferenceable(8) %0, ptr noundef nonnull align 8 dereferenceable(8) %1) #5 comdat align 2 {
  %3 = alloca ptr, align 8
  %4 = alloca ptr, align 8
  %5 = alloca ptr, align 8
  store ptr %0, ptr %3, align 8, !tbaa !459
  store ptr %1, ptr %4, align 8, !tbaa !459
  %6 = load ptr, ptr %3, align 8
  call void @llvm.lifetime.start.p0(i64 8, ptr %5) #3
  %7 = load ptr, ptr %4, align 8, !tbaa !459
  %8 = getelementptr inbounds nuw %"class.std::__shared_count", ptr %7, i32 0, i32 0
  %9 = load ptr, ptr %8, align 8, !tbaa !461
  store ptr %9, ptr %5, align 8, !tbaa !533
  %10 = getelementptr inbounds nuw %"class.std::__shared_count", ptr %6, i32 0, i32 0
  %11 = load ptr, ptr %10, align 8, !tbaa !461
  %12 = load ptr, ptr %4, align 8, !tbaa !459
  %13 = getelementptr inbounds nuw %"class.std::__shared_count", ptr %12, i32 0, i32 0
  store ptr %11, ptr %13, align 8, !tbaa !461
  %14 = load ptr, ptr %5, align 8, !tbaa !533
  %15 = getelementptr inbounds nuw %"class.std::__shared_count", ptr %6, i32 0, i32 0
  store ptr %14, ptr %15, align 8, !tbaa !461
  call void @llvm.lifetime.end.p0(i64 8, ptr %5) #3
  ret void
}

; Function Attrs: mustprogress nounwind uwtable
define linkonce_odr void @_ZNSt12__shared_ptrIN7xgboost17BatchIteratorImplINS0_11EllpackPageEEELN9__gnu_cxx12_Lock_policyE2EEC2EOS6_(ptr noundef nonnull align 8 dereferenceable(16) %0, ptr noundef nonnull align 8 dereferenceable(16) %1) unnamed_addr #5 comdat align 2 {
  %3 = alloca ptr, align 8
  %4 = alloca ptr, align 8
  store ptr %0, ptr %3, align 8, !tbaa !2166
  store ptr %1, ptr %4, align 8, !tbaa !2166
  %5 = load ptr, ptr %3, align 8
  %6 = getelementptr inbounds nuw %"class.std::__shared_ptr.145", ptr %5, i32 0, i32 0
  %7 = load ptr, ptr %4, align 8, !tbaa !2166
  %8 = getelementptr inbounds nuw %"class.std::__shared_ptr.145", ptr %7, i32 0, i32 0
  %9 = load ptr, ptr %8, align 8, !tbaa !2168
  store ptr %9, ptr %6, align 8, !tbaa !2168
  %10 = getelementptr inbounds nuw %"class.std::__shared_ptr.145", ptr %5, i32 0, i32 1
  call void @_ZNSt14__shared_countILN9__gnu_cxx12_Lock_policyE2EEC2Ev(ptr noundef nonnull align 8 dereferenceable(8) %10) #3
  %11 = getelementptr inbounds nuw %"class.std::__shared_ptr.145", ptr %5, i32 0, i32 1
  %12 = load ptr, ptr %4, align 8, !tbaa !2166
  %13 = getelementptr inbounds nuw %"class.std::__shared_ptr.145", ptr %12, i32 0, i32 1
  call void @_ZNSt14__shared_countILN9__gnu_cxx12_Lock_policyE2EE7_M_swapERS2_(ptr noundef nonnull align 8 dereferenceable(8) %11, ptr noundef nonnull align 8 dereferenceable(8) %13) #3
  %14 = load ptr, ptr %4, align 8, !tbaa !2166
  %15 = getelementptr inbounds nuw %"class.std::__shared_ptr.145", ptr %14, i32 0, i32 0
  store ptr null, ptr %15, align 8, !tbaa !2168
  ret void
}

; Function Attrs: mustprogress nounwind uwtable
define linkonce_odr void @_ZNSt14__shared_countILN9__gnu_cxx12_Lock_policyE2EEC2Ev(ptr noundef nonnull align 8 dereferenceable(8) %0) unnamed_addr #5 comdat align 2 {
  %2 = alloca ptr, align 8
  store ptr %0, ptr %2, align 8, !tbaa !459
  %3 = load ptr, ptr %2, align 8
  %4 = getelementptr inbounds nuw %"class.std::__shared_count", ptr %3, i32 0, i32 0
  store ptr null, ptr %4, align 8, !tbaa !461
  ret void
}

; Function Attrs: inlinehint mustprogress nounwind uwtable
define linkonce_odr noundef i32 @_ZStorSt12_Ios_IostateS_(i32 noundef %0, i32 noundef %1) #8 comdat {
  %3 = alloca i32, align 4
  %4 = alloca i32, align 4
  store i32 %0, ptr %3, align 4, !tbaa !1562
  store i32 %1, ptr %4, align 4, !tbaa !1562
  %5 = load i32, ptr %3, align 4, !tbaa !1562
  %6 = load i32, ptr %4, align 4, !tbaa !1562
  %7 = or i32 %5, %6
  ret i32 %7
}

; Function Attrs: mustprogress nounwind uwtable
define available_externally noundef i32 @_ZNKSt9basic_iosIcSt11char_traitsIcEE7rdstateEv(ptr noundef nonnull align 8 dereferenceable(264) %0) #5 align 2 {
  %2 = alloca ptr, align 8
  store ptr %0, ptr %2, align 8, !tbaa !597
  %3 = load ptr, ptr %2, align 8
  %4 = getelementptr inbounds nuw %"class.std::ios_base", ptr %3, i32 0, i32 5
  %5 = load i32, ptr %4, align 8, !tbaa !1563
  ret i32 %5
}

; Function Attrs: mustprogress nounwind uwtable
define linkonce_odr void @_ZNSt10shared_ptrIN7xgboost17BatchIteratorImplINS0_11EllpackPageEEEEC2EOS4_(ptr noundef nonnull align 8 dereferenceable(16) %0, ptr noundef nonnull align 8 dereferenceable(16) %1) unnamed_addr #5 comdat align 2 {
  %3 = alloca ptr, align 8
  %4 = alloca ptr, align 8
  store ptr %0, ptr %3, align 8, !tbaa !2164
  store ptr %1, ptr %4, align 8, !tbaa !2164
  %5 = load ptr, ptr %3, align 8
  %6 = load ptr, ptr %4, align 8, !tbaa !2164
  call void @_ZNSt12__shared_ptrIN7xgboost17BatchIteratorImplINS0_11EllpackPageEEELN9__gnu_cxx12_Lock_policyE2EEC2EOS6_(ptr noundef nonnull align 8 dereferenceable(16) %5, ptr noundef nonnull align 8 dereferenceable(16) %6) #3
  ret void
}

; Function Attrs: mustprogress nounwind uwtable
define linkonce_odr void @_ZNSt12__shared_ptrIN7xgboost17BatchIteratorImplINS0_11EllpackPageEEELN9__gnu_cxx12_Lock_policyE2EEC2Ev(ptr noundef nonnull align 8 dereferenceable(16) %0) unnamed_addr #5 comdat align 2 {
  %2 = alloca ptr, align 8
  store ptr %0, ptr %2, align 8, !tbaa !2166
  %3 = load ptr, ptr %2, align 8
  %4 = getelementptr inbounds nuw %"class.std::__shared_ptr.145", ptr %3, i32 0, i32 0
  store ptr null, ptr %4, align 8, !tbaa !2168
  %5 = getelementptr inbounds nuw %"class.std::__shared_ptr.145", ptr %3, i32 0, i32 1
  call void @_ZNSt14__shared_countILN9__gnu_cxx12_Lock_policyE2EEC2Ev(ptr noundef nonnull align 8 dereferenceable(8) %5) #3
  ret void
}

; Function Attrs: mustprogress nounwind uwtable
define linkonce_odr noundef i64 @_ZNSt11char_traitsIcE6lengthEPKc(ptr noundef %0) #5 comdat align 2 {
  %2 = alloca ptr, align 8
  store ptr %0, ptr %2, align 8, !tbaa !160
  %3 = load ptr, ptr %2, align 8, !tbaa !160
  %4 = call i64 @strlen(ptr noundef %3) #3
  ret i64 %4
}

; Function Attrs: mustprogress uwtable
define available_externally void @_ZNSt9basic_iosIcSt11char_traitsIcEE8setstateESt12_Ios_Iostate(ptr noundef nonnull align 8 dereferenceable(264) %0, i32 noundef %1) #6 align 2 {
  %3 = alloca ptr, align 8
  %4 = alloca i32, align 4
  store ptr %0, ptr %3, align 8, !tbaa !597
  store i32 %1, ptr %4, align 4, !tbaa !1562
  %5 = load ptr, ptr %3, align 8
  %6 = call noundef i32 @_ZNKSt9basic_iosIcSt11char_traitsIcEE7rdstateEv(ptr noundef nonnull align 8 dereferenceable(264) %5)
  %7 = load i32, ptr %4, align 4, !tbaa !1562
  %8 = call noundef i32 @_ZStorSt12_Ios_IostateS_(i32 noundef %6, i32 noundef %7)
  call void @_ZNSt9basic_iosIcSt11char_traitsIcEE5clearESt12_Ios_Iostate(ptr noundef nonnull align 8 dereferenceable(264) %5, i32 noundef %8)
  ret void
}

; Function Attrs: inlinehint mustprogress nounwind uwtable
define linkonce_odr void @_ZN7xgboost13BatchIteratorINS_11EllpackPageEEC2EOS2_(ptr noundef nonnull align 8 dereferenceable(16) %0, ptr noundef nonnull align 8 dereferenceable(16) %1) unnamed_addr #8 comdat align 2 {
  %3 = alloca ptr, align 8
  %4 = alloca ptr, align 8
  store ptr %0, ptr %3, align 8, !tbaa !375
  store ptr %1, ptr %4, align 8, !tbaa !375
  %5 = load ptr, ptr %3, align 8
  %6 = getelementptr inbounds nuw %"class.xgboost::BatchIterator.143", ptr %5, i32 0, i32 0
  %7 = load ptr, ptr %4, align 8, !tbaa !375
  %8 = getelementptr inbounds nuw %"class.xgboost::BatchIterator.143", ptr %7, i32 0, i32 0
  call void @_ZNSt10shared_ptrIN7xgboost17BatchIteratorImplINS0_11EllpackPageEEEEC2EOS4_(ptr noundef nonnull align 8 dereferenceable(16) %6, ptr noundef nonnull align 8 dereferenceable(16) %8) #3
  ret void
}

; Function Attrs: mustprogress nounwind uwtable
define linkonce_odr void @_ZNSt10shared_ptrIN7xgboost17BatchIteratorImplINS0_11EllpackPageEEEEC2Ev(ptr noundef nonnull align 8 dereferenceable(16) %0) unnamed_addr #5 comdat align 2 {
  %2 = alloca ptr, align 8
  store ptr %0, ptr %2, align 8, !tbaa !2164
  %3 = load ptr, ptr %2, align 8
  call void @_ZNSt12__shared_ptrIN7xgboost17BatchIteratorImplINS0_11EllpackPageEEELN9__gnu_cxx12_Lock_policyE2EEC2Ev(ptr noundef nonnull align 8 dereferenceable(16) %3) #3
  ret void
}

; Function Attrs: inlinehint mustprogress uwtable
define available_externally noundef nonnull align 8 dereferenceable(8) ptr @_ZStlsISt11char_traitsIcEERSt13basic_ostreamIcT_ES5_PKc(ptr noundef nonnull align 8 dereferenceable(8) %0, ptr noundef %1) #4 {
  %3 = alloca ptr, align 8
  %4 = alloca ptr, align 8
  store ptr %0, ptr %3, align 8, !tbaa !211
  store ptr %1, ptr %4, align 8, !tbaa !160
  %5 = load ptr, ptr %4, align 8, !tbaa !160
  %6 = icmp ne ptr %5, null
  br i1 %6, label %13, label %7

7:                                                ; preds = %2
  %8 = load ptr, ptr %3, align 8, !tbaa !211
  %9 = load ptr, ptr %8, align 8, !tbaa !11
  %10 = getelementptr i8, ptr %9, i64 -24
  %11 = load i64, ptr %10, align 8
  %12 = getelementptr inbounds i8, ptr %8, i64 %11
  call void @_ZNSt9basic_iosIcSt11char_traitsIcEE8setstateESt12_Ios_Iostate(ptr noundef nonnull align 8 dereferenceable(264) %12, i32 noundef 1)
  br label %19

13:                                               ; preds = %2
  %14 = load ptr, ptr %3, align 8, !tbaa !211
  %15 = load ptr, ptr %4, align 8, !tbaa !160
  %16 = load ptr, ptr %4, align 8, !tbaa !160
  %17 = call noundef i64 @_ZNSt11char_traitsIcE6lengthEPKc(ptr noundef %16)
  %18 = call noundef nonnull align 8 dereferenceable(8) ptr @_ZSt16__ostream_insertIcSt11char_traitsIcEERSt13basic_ostreamIT_T0_ES6_PKS3_l(ptr noundef nonnull align 8 dereferenceable(8) %14, ptr noundef %15, i64 noundef %17)
  br label %19

19:                                               ; preds = %13, %7
  %20 = load ptr, ptr %3, align 8, !tbaa !211
  ret ptr %20
}

; Function Attrs: mustprogress uwtable
define linkonce_odr noundef nonnull align 8 dereferenceable(112) ptr @_ZN4dmlc15LogMessageFatal6streamB5cxx11Ev(ptr noundef nonnull align 1 dereferenceable(1) %0) #6 comdat align 2 {
  %2 = alloca ptr, align 8
  store ptr %0, ptr %2, align 8, !tbaa !213
  %3 = load ptr, ptr %2, align 8
  %4 = call noundef nonnull align 8 dereferenceable(376) ptr @_ZN4dmlc15LogMessageFatal8GetEntryEv(ptr noundef nonnull align 1 dereferenceable(1) %3)
  %5 = getelementptr inbounds nuw %"struct.dmlc::LogMessageFatal::Entry", ptr %4, i32 0, i32 0
  ret ptr %5
}

; Function Attrs: mustprogress uwtable
define linkonce_odr void @_ZN4dmlc15LogMessageFatalC2EPKci(ptr noundef nonnull align 1 dereferenceable(1) %0, ptr noundef %1, i32 noundef %2) unnamed_addr #6 comdat align 2 {
  %4 = alloca ptr, align 8
  %5 = alloca ptr, align 8
  %6 = alloca i32, align 4
  store ptr %0, ptr %4, align 8, !tbaa !213
  store ptr %1, ptr %5, align 8, !tbaa !160
  store i32 %2, ptr %6, align 4, !tbaa !113
  %7 = load ptr, ptr %4, align 8
  %8 = call noundef nonnull align 8 dereferenceable(376) ptr @_ZN4dmlc15LogMessageFatal8GetEntryEv(ptr noundef nonnull align 1 dereferenceable(1) %7)
  %9 = load ptr, ptr %5, align 8, !tbaa !160
  %10 = load i32, ptr %6, align 4, !tbaa !113
  call void @_ZN4dmlc15LogMessageFatal5Entry4InitEPKci(ptr noundef nonnull align 8 dereferenceable(376) %8, ptr noundef %9, i32 noundef %10)
  ret void
}

; Function Attrs: inlinehint mustprogress nounwind uwtable
define linkonce_odr void @_ZN7xgboost13BatchIteratorINS_11EllpackPageEED2Ev(ptr noundef nonnull align 8 dereferenceable(16) %0) unnamed_addr #8 comdat align 2 {
  %2 = alloca ptr, align 8
  store ptr %0, ptr %2, align 8, !tbaa !375
  %3 = load ptr, ptr %2, align 8
  %4 = getelementptr inbounds nuw %"class.xgboost::BatchIterator.143", ptr %3, i32 0, i32 0
  call void @_ZNSt12__shared_ptrIN7xgboost17BatchIteratorImplINS0_11EllpackPageEEELN9__gnu_cxx12_Lock_policyE2EED2Ev(ptr noundef nonnull align 8 dereferenceable(16) %4) #3
  ret void
}

; Function Attrs: mustprogress nounwind uwtable
define linkonce_odr void @_ZN7xgboost8BatchSetINS_11EllpackPageEEC2ENS_13BatchIteratorIS1_EE(ptr noundef nonnull align 8 dereferenceable(16) %0, ptr noundef %1) unnamed_addr #5 comdat align 2 {
  %3 = alloca ptr, align 8
  %4 = alloca ptr, align 8
  store ptr %0, ptr %3, align 8, !tbaa !379
  store ptr %1, ptr %4, align 8, !tbaa !375
  %5 = load ptr, ptr %3, align 8
  %6 = getelementptr inbounds nuw %"class.xgboost::BatchSet.142", ptr %5, i32 0, i32 0
  call void @_ZN7xgboost13BatchIteratorINS_11EllpackPageEEC2EOS2_(ptr noundef nonnull align 8 dereferenceable(16) %6, ptr noundef nonnull align 8 dereferenceable(16) %1) #3
  ret void
}

; Function Attrs: mustprogress uwtable
define linkonce_odr void @_ZN7xgboost13BatchIteratorINS_11EllpackPageEEC2EPNS_17BatchIteratorImplIS1_EE(ptr noundef nonnull align 8 dereferenceable(16) %0, ptr noundef %1) unnamed_addr #6 comdat align 2 personality ptr @__gxx_personality_v0 {
  %3 = alloca ptr, align 8
  %4 = alloca ptr, align 8
  %5 = alloca ptr, align 8
  %6 = alloca i32, align 4
  store ptr %0, ptr %3, align 8, !tbaa !375
  store ptr %1, ptr %4, align 8, !tbaa !377
  %7 = load ptr, ptr %3, align 8
  %8 = getelementptr inbounds nuw %"class.xgboost::BatchIterator.143", ptr %7, i32 0, i32 0
  call void @_ZNSt10shared_ptrIN7xgboost17BatchIteratorImplINS0_11EllpackPageEEEEC2Ev(ptr noundef nonnull align 8 dereferenceable(16) %8) #3
  %9 = getelementptr inbounds nuw %"class.xgboost::BatchIterator.143", ptr %7, i32 0, i32 0
  %10 = load ptr, ptr %4, align 8, !tbaa !377
  invoke void @_ZNSt12__shared_ptrIN7xgboost17BatchIteratorImplINS0_11EllpackPageEEELN9__gnu_cxx12_Lock_policyE2EE5resetIS3_EENSt9enable_ifIXsr21__sp_is_constructibleIS3_T_EE5valueEvE4typeEPS9_(ptr noundef nonnull align 8 dereferenceable(16) %9, ptr noundef %10)
          to label %11 unwind label %12

11:                                               ; preds = %2
  ret void

12:                                               ; preds = %2
  %13 = landingpad { ptr, i32 }
          cleanup
  %14 = extractvalue { ptr, i32 } %13, 0
  store ptr %14, ptr %5, align 8
  %15 = extractvalue { ptr, i32 } %13, 1
  store i32 %15, ptr %6, align 4
  call void @_ZNSt12__shared_ptrIN7xgboost17BatchIteratorImplINS0_11EllpackPageEEELN9__gnu_cxx12_Lock_policyE2EED2Ev(ptr noundef nonnull align 8 dereferenceable(16) %8) #3
  br label %16

16:                                               ; preds = %12
  %17 = load ptr, ptr %5, align 8
  %18 = load i32, ptr %6, align 4
  %19 = insertvalue { ptr, i32 } poison, ptr %17, 0
  %20 = insertvalue { ptr, i32 } %19, i32 %18, 1
  resume { ptr, i32 } %20
}

; Function Attrs: inlinehint mustprogress uwtable
define linkonce_odr void @_ZN7xgboost6common16AssertGPUSupportEv() #4 comdat personality ptr @__gxx_personality_v0 {
  %1 = alloca %"class.dmlc::LogMessageFatal", align 1
  %2 = alloca ptr, align 8
  %3 = alloca i32, align 4
  call void @llvm.lifetime.start.p0(i64 1, ptr %1) #3
  call void @_ZN4dmlc15LogMessageFatalC2EPKci(ptr noundef nonnull align 1 dereferenceable(1) %1, ptr noundef @.str.15, i32 noundef 168)
  %4 = invoke noundef nonnull align 8 dereferenceable(112) ptr @_ZN4dmlc15LogMessageFatal6streamB5cxx11Ev(ptr noundef nonnull align 1 dereferenceable(1) %1)
          to label %5 unwind label %8

5:                                                ; preds = %0
  %6 = invoke noundef nonnull align 8 dereferenceable(8) ptr @_ZStlsISt11char_traitsIcEERSt13basic_ostreamIcT_ES5_PKc(ptr noundef nonnull align 8 dereferenceable(8) %4, ptr noundef @.str.16)
          to label %7 unwind label %8

7:                                                ; preds = %5
  call void @_ZN4dmlc15LogMessageFatalD2Ev(ptr noundef nonnull align 1 dereferenceable(1) %1)
  call void @llvm.lifetime.end.p0(i64 1, ptr %1) #3
  ret void

8:                                                ; preds = %5, %0
  %9 = landingpad { ptr, i32 }
          cleanup
  %10 = extractvalue { ptr, i32 } %9, 0
  store ptr %10, ptr %2, align 8
  %11 = extractvalue { ptr, i32 } %9, 1
  store i32 %11, ptr %3, align 4
  invoke void @_ZN4dmlc15LogMessageFatalD2Ev(ptr noundef nonnull align 1 dereferenceable(1) %1)
          to label %12 unwind label %18

12:                                               ; preds = %8
  call void @llvm.lifetime.end.p0(i64 1, ptr %1) #3
  br label %13

13:                                               ; preds = %12
  %14 = load ptr, ptr %2, align 8
  %15 = load i32, ptr %3, align 4
  %16 = insertvalue { ptr, i32 } poison, ptr %14, 0
  %17 = insertvalue { ptr, i32 } %16, i32 %15, 1
  resume { ptr, i32 } %17

18:                                               ; preds = %8
  %19 = landingpad { ptr, i32 }
          catch ptr null
  %20 = extractvalue { ptr, i32 } %19, 0
  call void @__clang_call_terminate(ptr %20) #27
  unreachable
}

; Function Attrs: mustprogress uwtable
define void @_ZN7xgboost4data17SparsePageDMatrix17GetEllpackBatchesEPKNS_7ContextERKNS_10BatchParamE(ptr dead_on_unwind noalias writable sret(%"class.xgboost::BatchSet.142") align 8 %0, ptr noundef nonnull align 8 dereferenceable(720) %1, ptr noundef %2, ptr noundef nonnull align 8 dereferenceable(48) %3) unnamed_addr #6 align 2 personality ptr @__gxx_personality_v0 {
  %5 = alloca ptr, align 8
  %6 = alloca ptr, align 8
  %7 = alloca ptr, align 8
  %8 = alloca ptr, align 8
  %9 = alloca %"class.xgboost::BatchIterator.143", align 8
  %10 = alloca ptr, align 8
  %11 = alloca i32, align 4
  store ptr %0, ptr %5, align 8
  store ptr %1, ptr %6, align 8, !tbaa !3
  store ptr %2, ptr %7, align 8, !tbaa !178
  store ptr %3, ptr %8, align 8, !tbaa !127
  call void @_ZN7xgboost6common16AssertGPUSupportEv()
  call void @_ZN7xgboost13BatchIteratorINS_11EllpackPageEEC2EPNS_17BatchIteratorImplIS1_EE(ptr noundef nonnull align 8 dereferenceable(16) %9, ptr noundef null)
  invoke void @_ZN7xgboost8BatchSetINS_11EllpackPageEEC2ENS_13BatchIteratorIS1_EE(ptr noundef nonnull align 8 dereferenceable(16) %0, ptr noundef %9)
          to label %12 unwind label %13

12:                                               ; preds = %4
  call void @_ZN7xgboost13BatchIteratorINS_11EllpackPageEED2Ev(ptr noundef nonnull align 8 dereferenceable(16) %9) #3
  ret void

13:                                               ; preds = %4
  %14 = landingpad { ptr, i32 }
          cleanup
  %15 = extractvalue { ptr, i32 } %14, 0
  store ptr %15, ptr %10, align 8
  %16 = extractvalue { ptr, i32 } %14, 1
  store i32 %16, ptr %11, align 4
  call void @_ZN7xgboost13BatchIteratorINS_11EllpackPageEED2Ev(ptr noundef nonnull align 8 dereferenceable(16) %9) #3
  br label %17

17:                                               ; preds = %13
  %18 = load ptr, ptr %10, align 8
  %19 = load i32, ptr %11, align 4
  %20 = insertvalue { ptr, i32 } poison, ptr %18, 0
  %21 = insertvalue { ptr, i32 } %20, i32 %19, 1
  resume { ptr, i32 } %21
}