; Function Attrs: mustprogress uwtable
define void @_ZN7xgboost4data17SparsePageDMatrix17GetEllpackBatchesEPKNS_7ContextERKNS_10BatchParamE(ptr dead_on_unwind noalias writable writeonly sret(%"class.xgboost::BatchSet.142") align 8 captures(none) %0, ptr nonnull readnone align 8 captures(none) %1, ptr readnone captures(none) %2, ptr nonnull readnone align 8 captures(none) %3) unnamed_addr #4 align 2 personality ptr @__gxx_personality_v0 {
  %5 = alloca %"class.dmlc::LogMessageFatal", align 1
  %6 = alloca %"class.xgboost::BatchIterator.143", align 8
  call void @llvm.lifetime.start.p0(i64 1, ptr nonnull %5) #23
  %7 = call noundef nonnull align 8 dereferenceable(376) ptr @_ZN4dmlc15LogMessageFatal8GetEntryEv(ptr noundef nonnull align 1 dereferenceable(1) %5)
  call void @_ZN4dmlc15LogMessageFatal5Entry4InitEPKci(ptr noundef nonnull align 8 dereferenceable(376) %7, ptr noundef nonnull @.str.15, i32 noundef 168)
  %8 = invoke noundef nonnull align 8 dereferenceable(376) ptr @_ZN4dmlc15LogMessageFatal8GetEntryEv(ptr noundef nonnull align 1 dereferenceable(1) %5)
          to label %_ZN4dmlc15LogMessageFatal6streamB5cxx11Ev.exit.i unwind label %10

_ZN4dmlc15LogMessageFatal6streamB5cxx11Ev.exit.i: ; preds = %4
  %9 = invoke noundef nonnull align 8 dereferenceable(8) ptr @_ZSt16__ostream_insertIcSt11char_traitsIcEERSt13basic_ostreamIT_T0_ES6_PKS3_l(ptr noundef nonnull align 8 dereferenceable(8) %8, ptr noundef nonnull @.str.16, i64 noundef 46)
          to label %_ZN7xgboost6common16AssertGPUSupportEv.exit unwind label %10

10:                                               ; preds = %_ZN4dmlc15LogMessageFatal6streamB5cxx11Ev.exit.i, %4
  %11 = landingpad { ptr, i32 }
          cleanup
  invoke void @_ZN4dmlc15LogMessageFatalD2Ev(ptr noundef nonnull align 1 dereferenceable(1) %5)
          to label %12 unwind label %13

common.resume:                                    ; preds = %16, %12
  %common.resume.op = phi { ptr, i32 } [ %11, %12 ], [ %17, %16 ]
  resume { ptr, i32 } %common.resume.op

12:                                               ; preds = %10
  call void @llvm.lifetime.end.p0(i64 1, ptr nonnull %5) #23
  br label %common.resume

13:                                               ; preds = %10
  %14 = landingpad { ptr, i32 }
          catch ptr null
  %15 = extractvalue { ptr, i32 } %14, 0
  call void @__clang_call_terminate(ptr %15) #35
  unreachable

_ZN7xgboost6common16AssertGPUSupportEv.exit:      ; preds = %_ZN4dmlc15LogMessageFatal6streamB5cxx11Ev.exit.i
  call void @_ZN4dmlc15LogMessageFatalD2Ev(ptr noundef nonnull align 1 dereferenceable(1) %5)
  call void @llvm.lifetime.end.p0(i64 1, ptr nonnull %5) #23
  call void @llvm.memset.p0.i64(ptr noundef nonnull align 8 dereferenceable(16) %6, i8 0, i64 16, i1 false)
  invoke void @_ZNSt12__shared_ptrIN7xgboost17BatchIteratorImplINS0_11EllpackPageEEELN9__gnu_cxx12_Lock_policyE2EE5resetIS3_EENSt9enable_ifIXsr21__sp_is_constructibleIS3_T_EE5valueEvE4typeEPS9_(ptr noundef nonnull align 8 dereferenceable(16) %6, ptr noundef null)
          to label %_ZN7xgboost13BatchIteratorINS_11EllpackPageEED2Ev.exit unwind label %16

16:                                               ; preds = %_ZN7xgboost6common16AssertGPUSupportEv.exit
  %17 = landingpad { ptr, i32 }
          cleanup
  call void @_ZNSt12__shared_ptrIN7xgboost17BatchIteratorImplINS0_11EllpackPageEEELN9__gnu_cxx12_Lock_policyE2EED2Ev(ptr noundef nonnull align 8 dereferenceable(16) %6) #23
  br label %common.resume

_ZN7xgboost13BatchIteratorINS_11EllpackPageEED2Ev.exit: ; preds = %_ZN7xgboost6common16AssertGPUSupportEv.exit
  %18 = load ptr, ptr %6, align 8, !tbaa !332
  store ptr %18, ptr %0, align 8, !tbaa !332
  %19 = getelementptr inbounds nuw i8, ptr %0, i64 8
  %20 = getelementptr inbounds nuw i8, ptr %6, i64 8
  %21 = load ptr, ptr %20, align 8, !tbaa !131
  store ptr %21, ptr %19, align 8, !tbaa !131
  ret void
}